; ModuleID = 'source-C-CXX/29/2932.c'
source_filename = "source-C-CXX/29/2932.c"
target datalayout = "e-m:e-p270:32:32-p271:32:32-p272:64:64-i64:64-f80:128-n8:16:32:64-S128"
target triple = "x86_64-pc-linux-gnu"

@.str = private unnamed_addr constant [3 x i8] c"%d\00", align 1

; Function Attrs: nofree norecurse nosync nounwind readnone sspstrong uwtable
define dso_local i32 @mm(i32 %0) local_unnamed_addr #0 {
  %2 = srem i32 %0, 7
  %3 = icmp eq i32 %2, 0
  br i1 %3, label %13, label %4

4:                                                ; preds = %1
  %5 = icmp sgt i32 %0, 0
  br i1 %5, label %6, label %13

6:                                                ; preds = %4, %11
  %7 = phi i32 [ %9, %11 ], [ %0, %4 ]
  %8 = urem i32 %7, 10
  %9 = udiv i32 %7, 10
  %10 = icmp eq i32 %8, 7
  br i1 %10, label %13, label %11

11:                                               ; preds = %6
  %12 = icmp ult i32 %7, 10
  br i1 %12, label %13, label %6, !llvm.loop !5

13:                                               ; preds = %6, %11, %4, %1
  %14 = phi i32 [ 0, %1 ], [ 1, %4 ], [ 0, %6 ], [ 1, %11 ]
  ret i32 %14
}

; Function Attrs: argmemonly mustprogress nofree nosync nounwind willreturn
declare void @llvm.lifetime.start.p0i8(i64 immarg, i8* nocapture) #1

; Function Attrs: argmemonly mustprogress nofree nosync nounwind willreturn
declare void @llvm.lifetime.end.p0i8(i64 immarg, i8* nocapture) #1

; Function Attrs: nofree nounwind sspstrong uwtable
define dso_local i32 @main(i32 %0, i8** nocapture readnone %1) local_unnamed_addr #2 {
  %3 = alloca i32, align 4
  %4 = bitcast i32* %3 to i8*
  call void @llvm.lifetime.start.p0i8(i64 4, i8* nonnull %4) #4
  %5 = call i32 (i8*, ...) @__isoc99_scanf(i8* getelementptr inbounds ([3 x i8], [3 x i8]* @.str, i64 0, i64 0), i32* nonnull %3)
  %6 = load i32, i32* %3, align 4, !tbaa !7
  %7 = icmp slt i32 %6, 1
  br i1 %7, label %27, label %8

8:                                                ; preds = %2, %23
  %9 = phi i32 [ %24, %23 ], [ 0, %2 ]
  %10 = phi i32 [ %25, %23 ], [ 1, %2 ]
  %11 = urem i32 %10, 7
  %12 = icmp eq i32 %11, 0
  br i1 %12, label %23, label %13

13:                                               ; preds = %8, %18
  %14 = phi i32 [ %16, %18 ], [ %10, %8 ]
  %15 = urem i32 %14, 10
  %16 = udiv i32 %14, 10
  %17 = icmp eq i32 %15, 7
  br i1 %17, label %23, label %18

18:                                               ; preds = %13
  %19 = icmp ult i32 %14, 10
  br i1 %19, label %20, label %13, !llvm.loop !5

20:                                               ; preds = %18
  %21 = mul nsw i32 %10, %10
  %22 = add nsw i32 %9, %21
  br label %23

23:                                               ; preds = %13, %8, %20
  %24 = phi i32 [ %22, %20 ], [ %9, %8 ], [ %9, %13 ]
  %25 = add nuw i32 %10, 1
  %26 = icmp eq i32 %10, %6
  br i1 %26, label %27, label %8, !llvm.loop !11

27:                                               ; preds = %23, %2
  %28 = phi i32 [ 0, %2 ], [ %24, %23 ]
  %29 = call i32 (i8*, ...) @printf(i8* nonnull dereferenceable(1) getelementptr inbounds ([3 x i8], [3 x i8]* @.str, i64 0, i64 0), i32 %28)
  call void @llvm.lifetime.end.p0i8(i64 4, i8* nonnull %4) #4
  ret i32 0
}

; Function Attrs: nofree nounwind
declare noundef i32 @__isoc99_scanf(i8* nocapture noundef readonly, ...) local_unnamed_addr #3

; Function Attrs: nofree nounwind
declare noundef i32 @printf(i8* nocapture noundef readonly, ...) local_unnamed_addr #3


!llvm.module.flags = !{!0, !1, !2, !3}
!llvm.ident = !{!4}

!0 = !{i32 1, !"wchar_size", i32 4}
!1 = !{i32 7, !"PIC Level", i32 2}
!2 = !{i32 7, !"PIE Level", i32 2}
!3 = !{i32 7, !"uwtable", i32 1}
!4 = !{!"clang version 13.0.0"}
!5 = distinct !{!5, !6}
!6 = !{!"llvm.loop.mustprogress"}
!7 = !{!8, !8, i64 0}
!8 = !{!"int", !9, i64 0}
!9 = !{!"omnipotent char", !10, i64 0}
!10 = !{!"Simple C/C++ TBAA"}
!11 = distinct !{!11, !6}
